target datalayout = "e-m:e-p270:32:32-p271:32:32-p272:64:64-i64:64-i128:128-f80:128-n8:16:32:64-S128"
target triple = "x86_64-unknown-linux-gnu"

%struct.TimersState = type { i64, i64, %struct.QemuSeqLock, %struct.QemuSpin, i16, i16, i64, i64, i64, i64, i64, ptr, ptr, ptr }
%struct.QemuSeqLock = type { i32 }
%struct.QemuSpin = type { i32 }

@timers_state = external global %struct.TimersState, align 8

; Function Attrs: nounwind sspstrong uwtable
define internal i64 @qemu_clock_get_ms(i32 noundef %type) #0 {
entry:
  %type.addr = alloca i32, align 4
  store i32 %type, ptr %type.addr, align 4
  %0 = load i32, ptr %type.addr, align 4
  %call = call i64 @qemu_clock_get_ns(i32 noundef %0)
  %div = sdiv i64 %call, 1000000
  ret i64 %div
}

; Function Attrs: nounwind sspstrong uwtable
define internal void @icount_adjust_rt(ptr noundef %opaque) #0 {
entry:
  %opaque.addr = alloca ptr, align 8
  store ptr %opaque, ptr %opaque.addr, align 8
  %0 = getelementptr inbounds %struct.TimersState, ptr @timers_state, i32 0, i32 11
  %1 = load ptr, ptr %0, align 8
  %call = call i64 @qemu_clock_get_ms(i32 noundef 3)
  %add = add i64 %call, 1000
  call void @timer_mod(ptr noundef %1, i64 noundef %add)
  call void @icount_adjust()
  ret void
}