; Function Attrs: nounwind sspstrong uwtable
define internal void @icount_adjust_rt(ptr readnone captures(none) %opaque) #0 {
entry:
  %0 = load ptr, ptr getelementptr inbounds nuw (i8, ptr @timers_state, i64 72), align 8
  %call.i = tail call i64 @qemu_clock_get_ns(i32 noundef 3) #9
  %div.i = sdiv i64 %call.i, 1000000
  %add = add nsw i64 %div.i, 1000
  tail call void @timer_mod(ptr noundef %0, i64 noundef %add) #9
  tail call fastcc void @icount_adjust()
  ret void
}